target datalayout = "e-m:e-p270:32:32-p271:32:32-p272:64:64-i64:64-i128:128-f80:128-n8:16:32:64-S128"
target triple = "x86_64-pc-linux-gnu"

%struct.H5G_bt2_ud_ins_t = type { %struct.H5G_bt2_ud_common_t, [7 x i8] }
%struct.H5G_bt2_ud_common_t = type { ptr, ptr, ptr, i32, i64, ptr, ptr }
%struct.H5G_dense_bt2_corder_rec_t = type { [7 x i8], i64 }

@H5G_init_g = external global i8, align 1
@H5_libterm_g = external global i8, align 1

; Function Attrs: nounwind uwtable
define internal i32 @H5G__dense_btree2_corder_store(ptr noundef %0, ptr noundef %1) #0 {
  %3 = alloca ptr, align 8
  %4 = alloca ptr, align 8
  %5 = alloca ptr, align 8
  %6 = alloca ptr, align 8
  store ptr %0, ptr %3, align 8, !tbaa !3
  store ptr %1, ptr %4, align 8, !tbaa !3
  call void @llvm.lifetime.start.p0(i64 8, ptr %5) #7
  %7 = load ptr, ptr %4, align 8, !tbaa !3
  store ptr %7, ptr %5, align 8, !tbaa !7
  call void @llvm.lifetime.start.p0(i64 8, ptr %6) #7
  %8 = load ptr, ptr %3, align 8, !tbaa !3
  store ptr %8, ptr %6, align 8, !tbaa !49
  %9 = load i8, ptr @H5G_init_g, align 1, !tbaa !11, !range !13, !noundef !14
  %10 = trunc i8 %9 to i1
  br i1 %10, label %15, label %11

11:                                               ; preds = %2
  %12 = load i8, ptr @H5_libterm_g, align 1, !tbaa !11, !range !13, !noundef !14
  %13 = trunc i8 %12 to i1
  %14 = xor i1 %13, true
  br label %15

15:                                               ; preds = %11, %2
  %16 = phi i1 [ true, %2 ], [ %14, %11 ]
  %17 = xor i1 %16, true
  %18 = xor i1 %17, true
  %19 = zext i1 %18 to i32
  %20 = sext i32 %19 to i64
  %21 = call i64 @llvm.expect.i64(i64 %20, i64 1)
  %22 = icmp ne i64 %21, 0
  br i1 %22, label %23, label %36

23:                                               ; preds = %15
  %24 = load ptr, ptr %5, align 8, !tbaa !7
  %25 = getelementptr inbounds nuw %struct.H5G_bt2_ud_ins_t, ptr %24, i32 0, i32 0
  %26 = getelementptr inbounds nuw %struct.H5G_bt2_ud_common_t, ptr %25, i32 0, i32 4
  %27 = load i64, ptr %26, align 8, !tbaa !51
  %28 = load ptr, ptr %6, align 8, !tbaa !49
  %29 = getelementptr inbounds nuw %struct.H5G_dense_bt2_corder_rec_t, ptr %28, i32 0, i32 1
  store i64 %27, ptr %29, align 8, !tbaa !52
  %30 = load ptr, ptr %6, align 8, !tbaa !49
  %31 = getelementptr inbounds nuw %struct.H5G_dense_bt2_corder_rec_t, ptr %30, i32 0, i32 0
  %32 = getelementptr inbounds [7 x i8], ptr %31, i64 0, i64 0
  %33 = load ptr, ptr %5, align 8, !tbaa !7
  %34 = getelementptr inbounds nuw %struct.H5G_bt2_ud_ins_t, ptr %33, i32 0, i32 1
  %35 = getelementptr inbounds [7 x i8], ptr %34, i64 0, i64 0
  call void @llvm.memcpy.p0.p0.i64(ptr align 8 %32, ptr align 8 %35, i64 7, i1 false)
  br label %36

36:                                               ; preds = %23, %15
  call void @llvm.lifetime.end.p0(i64 8, ptr %6) #7
  call void @llvm.lifetime.end.p0(i64 8, ptr %5) #7
  ret i32 0
}