; Function Attrs: mustprogress nofree norecurse nosync nounwind willreturn memory(read, argmem: readwrite, inaccessiblemem: none) uwtable
define internal noundef i32 @H5G__dense_btree2_corder_store(ptr noundef writeonly captures(none) %0, ptr noundef readonly captures(none) %1) #0 {
  %3 = load i8, ptr @H5G_init_g, align 1, !tbaa !3, !range !7, !noundef !8
  %4 = trunc nuw i8 %3 to i1
  %5 = load i8, ptr @H5_libterm_g, align 1, !range !7
  %6 = trunc nuw i8 %5 to i1
  %7 = xor i1 %6, true
  %8 = select i1 %4, i1 true, i1 %7
  br i1 %8, label %9, label %14, !prof !9

9:                                                ; preds = %2
  %10 = getelementptr inbounds nuw i8, ptr %1, i64 32
  %11 = load i64, ptr %10, align 8, !tbaa !40
  %12 = getelementptr inbounds nuw i8, ptr %0, i64 8
  store i64 %11, ptr %12, align 8, !tbaa !41
  %13 = getelementptr inbounds nuw i8, ptr %1, i64 56
  tail call void @llvm.memcpy.p0.p0.i64(ptr noundef nonnull align 8 dereferenceable(7) %0, ptr noundef nonnull align 8 dereferenceable(7) %13, i64 7, i1 false)
  br label %14

14:                                               ; preds = %9, %2
  ret i32 0
}